; Function Attrs: nounwind uwtable
define ptr @zend_get_configuration_directive(ptr noundef %0) local_unnamed_addr #0 {
  %2 = load ptr, ptr @zend_get_configuration_directive_p, align 8
  %.not = icmp eq ptr %2, null
  br i1 %.not, label %5, label %3

3:                                                ; preds = %1
  %4 = tail call ptr %2(ptr noundef %0) #30
  br label %5

5:                                                ; preds = %1, %3
  %.0 = phi ptr [ %4, %3 ], [ null, %1 ]
  ret ptr %.0
}